target datalayout = "e-m:e-p270:32:32-p271:32:32-p272:64:64-i64:64-i128:128-f80:128-n8:16:32:64-S128"
target triple = "x86_64-pc-linux-gnu"

%struct.HWContextType = type { i32, ptr, ptr, i64, i64, i64, ptr, ptr, ptr, ptr, ptr, ptr, ptr, ptr, ptr, ptr, ptr, ptr, ptr, ptr, ptr }
%struct.AVBufferRef = type { ptr, ptr, i64 }
%struct.FFHWFramesContext = type { %struct.AVHWFramesContext, ptr, ptr, ptr, i32 }
%struct.AVHWFramesContext = type { ptr, ptr, ptr, ptr, ptr, ptr, ptr, i32, i32, i32, i32, i32 }
%struct.AVFrame = type { [8 x ptr], [8 x i32], ptr, i32, i32, i32, i32, i32, %struct.AVRational, i64, i64, %struct.AVRational, i32, ptr, i32, i32, [8 x ptr], ptr, i32, ptr, i32, i32, i32, i32, i32, i32, i32, i64, ptr, i32, ptr, ptr, i64, i64, i64, i64, ptr, %struct.AVChannelLayout, i64 }
%struct.AVRational = type { i32, i32 }
%struct.AVChannelLayout = type { i32, i32, %union.anon, ptr }
%union.anon = type { i64 }

@.str.3 = private unnamed_addr constant [53 x i8] c"Failed to map frame into derived frame context: %d.\0A\00", align 1

; Function Attrs: nounwind uwtable
define i32 @av_hwframe_get_buffer(ptr noundef %0, ptr noundef %1, i32 noundef %2) #0 {
  %4 = alloca i32, align 4
  %5 = alloca ptr, align 8
  %6 = alloca ptr, align 8
  %7 = alloca i32, align 4
  %8 = alloca ptr, align 8
  %9 = alloca ptr, align 8
  %10 = alloca i32, align 4
  %11 = alloca ptr, align 8
  %12 = alloca i32, align 4
  store ptr %0, ptr %5, align 8, !tbaa !28
  store ptr %1, ptr %6, align 8, !tbaa !71
  store i32 %2, ptr %7, align 4, !tbaa !9
  call void @llvm.lifetime.start.p0(i64 8, ptr %8) #5
  %13 = load ptr, ptr %5, align 8, !tbaa !28
  %14 = getelementptr inbounds nuw %struct.AVBufferRef, ptr %13, i32 0, i32 1
  %15 = load ptr, ptr %14, align 8, !tbaa !37
  store ptr %15, ptr %8, align 8, !tbaa !41
  call void @llvm.lifetime.start.p0(i64 8, ptr %9) #5
  %16 = load ptr, ptr %8, align 8, !tbaa !41
  %17 = getelementptr inbounds nuw %struct.FFHWFramesContext, ptr %16, i32 0, i32 0
  store ptr %17, ptr %9, align 8, !tbaa !43
  call void @llvm.lifetime.start.p0(i64 4, ptr %10) #5
  %18 = load ptr, ptr %8, align 8, !tbaa !41
  %19 = getelementptr inbounds nuw %struct.FFHWFramesContext, ptr %18, i32 0, i32 3
  %20 = load ptr, ptr %19, align 8, !tbaa !59
  %21 = icmp ne ptr %20, null
  br i1 %21, label %22, label %67

22:                                               ; preds = %3
  call void @llvm.lifetime.start.p0(i64 8, ptr %11) #5
  %23 = load ptr, ptr %9, align 8, !tbaa !43
  %24 = getelementptr inbounds nuw %struct.AVHWFramesContext, ptr %23, i32 0, i32 8
  %25 = load i32, ptr %24, align 4, !tbaa !52
  %26 = load ptr, ptr %6, align 8, !tbaa !71
  %27 = getelementptr inbounds nuw %struct.AVFrame, ptr %26, i32 0, i32 6
  store i32 %25, ptr %27, align 4, !tbaa !87
  %28 = load ptr, ptr %5, align 8, !tbaa !28
  %29 = call ptr @av_buffer_ref(ptr noundef %28)
  %30 = load ptr, ptr %6, align 8, !tbaa !71
  %31 = getelementptr inbounds nuw %struct.AVFrame, ptr %30, i32 0, i32 30
  store ptr %29, ptr %31, align 8, !tbaa !77
  %32 = load ptr, ptr %6, align 8, !tbaa !71
  %33 = getelementptr inbounds nuw %struct.AVFrame, ptr %32, i32 0, i32 30
  %34 = load ptr, ptr %33, align 8, !tbaa !77
  %35 = icmp ne ptr %34, null
  br i1 %35, label %37, label %36

36:                                               ; preds = %22
  store i32 -12, ptr %4, align 4
  store i32 1, ptr %12, align 4
  br label %66

37:                                               ; preds = %22
  %38 = call ptr @av_frame_alloc()
  store ptr %38, ptr %11, align 8, !tbaa !71
  %39 = load ptr, ptr %11, align 8, !tbaa !71
  %40 = icmp ne ptr %39, null
  br i1 %40, label %42, label %41

41:                                               ; preds = %37
  store i32 -12, ptr %4, align 4
  store i32 1, ptr %12, align 4
  br label %66

42:                                               ; preds = %37
  %43 = load ptr, ptr %8, align 8, !tbaa !41
  %44 = getelementptr inbounds nuw %struct.FFHWFramesContext, ptr %43, i32 0, i32 3
  %45 = load ptr, ptr %44, align 8, !tbaa !59
  %46 = load ptr, ptr %11, align 8, !tbaa !71
  %47 = call i32 @av_hwframe_get_buffer(ptr noundef %45, ptr noundef %46, i32 noundef 0)
  store i32 %47, ptr %10, align 4, !tbaa !9
  %48 = load i32, ptr %10, align 4, !tbaa !9
  %49 = icmp slt i32 %48, 0
  br i1 %49, label %50, label %52

50:                                               ; preds = %42
  call void @av_frame_free(ptr noundef %11)
  %51 = load i32, ptr %10, align 4, !tbaa !9
  store i32 %51, ptr %4, align 4
  store i32 1, ptr %12, align 4
  br label %66

52:                                               ; preds = %42
  %53 = load ptr, ptr %6, align 8, !tbaa !71
  %54 = load ptr, ptr %11, align 8, !tbaa !71
  %55 = load ptr, ptr %8, align 8, !tbaa !41
  %56 = getelementptr inbounds nuw %struct.FFHWFramesContext, ptr %55, i32 0, i32 4
  %57 = load i32, ptr %56, align 8, !tbaa !90
  %58 = call i32 @av_hwframe_map(ptr noundef %53, ptr noundef %54, i32 noundef %57)
  store i32 %58, ptr %10, align 4, !tbaa !9
  %59 = load i32, ptr %10, align 4, !tbaa !9
  %60 = icmp ne i32 %59, 0
  br i1 %60, label %61, label %65

61:                                               ; preds = %52
  %62 = load ptr, ptr %9, align 8, !tbaa !43
  %63 = load i32, ptr %10, align 4, !tbaa !9
  call void (ptr, i32, ptr, ...) @av_log(ptr noundef %62, i32 noundef 16, ptr noundef @.str.3, i32 noundef %63)
  call void @av_frame_free(ptr noundef %11)
  %64 = load i32, ptr %10, align 4, !tbaa !9
  store i32 %64, ptr %4, align 4
  store i32 1, ptr %12, align 4
  br label %66

65:                                               ; preds = %52
  call void @av_frame_free(ptr noundef %11)
  store i32 0, ptr %4, align 4
  store i32 1, ptr %12, align 4
  br label %66

66:                                               ; preds = %65, %61, %50, %41, %36
  call void @llvm.lifetime.end.p0(i64 8, ptr %11) #5
  br label %112

67:                                               ; preds = %3
  %68 = load ptr, ptr %8, align 8, !tbaa !41
  %69 = getelementptr inbounds nuw %struct.FFHWFramesContext, ptr %68, i32 0, i32 1
  %70 = load ptr, ptr %69, align 8, !tbaa !54
  %71 = getelementptr inbounds nuw %struct.HWContextType, ptr %70, i32 0, i32 13
  %72 = load ptr, ptr %71, align 8, !tbaa !91
  %73 = icmp ne ptr %72, null
  br i1 %73, label %75, label %74

74:                                               ; preds = %67
  store i32 -38, ptr %4, align 4
  store i32 1, ptr %12, align 4
  br label %112

75:                                               ; preds = %67
  %76 = load ptr, ptr %9, align 8, !tbaa !43
  %77 = getelementptr inbounds nuw %struct.AVHWFramesContext, ptr %76, i32 0, i32 6
  %78 = load ptr, ptr %77, align 8, !tbaa !66
  %79 = icmp ne ptr %78, null
  br i1 %79, label %81, label %80

80:                                               ; preds = %75
  store i32 -22, ptr %4, align 4
  store i32 1, ptr %12, align 4
  br label %112

81:                                               ; preds = %75
  %82 = load ptr, ptr %5, align 8, !tbaa !28
  %83 = call ptr @av_buffer_ref(ptr noundef %82)
  %84 = load ptr, ptr %6, align 8, !tbaa !71
  %85 = getelementptr inbounds nuw %struct.AVFrame, ptr %84, i32 0, i32 30
  store ptr %83, ptr %85, align 8, !tbaa !77
  %86 = load ptr, ptr %6, align 8, !tbaa !71
  %87 = getelementptr inbounds nuw %struct.AVFrame, ptr %86, i32 0, i32 30
  %88 = load ptr, ptr %87, align 8, !tbaa !77
  %89 = icmp ne ptr %88, null
  br i1 %89, label %91, label %90

90:                                               ; preds = %81
  store i32 -12, ptr %4, align 4
  store i32 1, ptr %12, align 4
  br label %112

91:                                               ; preds = %81
  %92 = load ptr, ptr %8, align 8, !tbaa !41
  %93 = getelementptr inbounds nuw %struct.FFHWFramesContext, ptr %92, i32 0, i32 1
  %94 = load ptr, ptr %93, align 8, !tbaa !54
  %95 = getelementptr inbounds nuw %struct.HWContextType, ptr %94, i32 0, i32 13
  %96 = load ptr, ptr %95, align 8, !tbaa !91
  %97 = load ptr, ptr %9, align 8, !tbaa !43
  %98 = load ptr, ptr %6, align 8, !tbaa !71
  %99 = call i32 %96(ptr noundef %97, ptr noundef %98)
  store i32 %99, ptr %10, align 4, !tbaa !9
  %100 = load i32, ptr %10, align 4, !tbaa !9
  %101 = icmp slt i32 %100, 0
  br i1 %101, label %102, label %106

102:                                              ; preds = %91
  %103 = load ptr, ptr %6, align 8, !tbaa !71
  %104 = getelementptr inbounds nuw %struct.AVFrame, ptr %103, i32 0, i32 30
  call void @av_buffer_unref(ptr noundef %104)
  %105 = load i32, ptr %10, align 4, !tbaa !9
  store i32 %105, ptr %4, align 4
  store i32 1, ptr %12, align 4
  br label %112

106:                                              ; preds = %91
  %107 = load ptr, ptr %6, align 8, !tbaa !71
  %108 = getelementptr inbounds nuw %struct.AVFrame, ptr %107, i32 0, i32 0
  %109 = getelementptr inbounds [8 x ptr], ptr %108, i64 0, i64 0
  %110 = load ptr, ptr %6, align 8, !tbaa !71
  %111 = getelementptr inbounds nuw %struct.AVFrame, ptr %110, i32 0, i32 2
  store ptr %109, ptr %111, align 8, !tbaa !92
  store i32 0, ptr %4, align 4
  store i32 1, ptr %12, align 4
  br label %112

112:                                              ; preds = %106, %102, %90, %80, %74, %66
  call void @llvm.lifetime.end.p0(i64 4, ptr %10) #5
  call void @llvm.lifetime.end.p0(i64 8, ptr %9) #5
  call void @llvm.lifetime.end.p0(i64 8, ptr %8) #5
  %113 = load i32, ptr %4, align 4
  ret i32 %113
}