; Function Attrs: nounwind uwtable
define i32 @av_hwframe_get_buffer(ptr noundef %0, ptr noundef %1, i32 %2) local_unnamed_addr #5 {
  %4 = alloca ptr, align 8
  %5 = getelementptr inbounds nuw i8, ptr %0, i64 8
  %6 = load ptr, ptr %5, align 8, !tbaa !32
  %7 = getelementptr inbounds nuw i8, ptr %6, i64 96
  %8 = load ptr, ptr %7, align 8, !tbaa !53
  %.not = icmp eq ptr %8, null
  br i1 %.not, label %27, label %9

9:                                                ; preds = %3
  call void @llvm.lifetime.start.p0(i64 8, ptr nonnull %4) #11
  %10 = getelementptr inbounds nuw i8, ptr %6, i64 60
  %11 = load i32, ptr %10, align 4, !tbaa !46
  %12 = getelementptr inbounds nuw i8, ptr %1, i64 116
  store i32 %11, ptr %12, align 4, !tbaa !79
  %13 = tail call ptr @av_buffer_ref(ptr noundef nonnull %0) #11
  %14 = getelementptr inbounds nuw i8, ptr %1, i64 328
  store ptr %13, ptr %14, align 8, !tbaa !71
  %.not37 = icmp eq ptr %13, null
  br i1 %.not37, label %26, label %15

15:                                               ; preds = %9
  %16 = tail call ptr @av_frame_alloc() #11
  store ptr %16, ptr %4, align 8, !tbaa !66
  %.not38 = icmp eq ptr %16, null
  br i1 %.not38, label %26, label %17

17:                                               ; preds = %15
  %18 = load ptr, ptr %7, align 8, !tbaa !53
  %19 = tail call i32 @av_hwframe_get_buffer(ptr noundef %18, ptr noundef nonnull %16, i32 poison)
  %20 = icmp slt i32 %19, 0
  br i1 %20, label %.sink.split, label %21

21:                                               ; preds = %17
  %22 = getelementptr inbounds nuw i8, ptr %6, i64 104
  %23 = load i32, ptr %22, align 8, !tbaa !85
  %24 = tail call i32 @av_hwframe_map(ptr noundef nonnull %1, ptr noundef nonnull %16, i32 noundef %23)
  %.not39 = icmp eq i32 %24, 0
  br i1 %.not39, label %.sink.split, label %25

25:                                               ; preds = %21
  tail call void (ptr, i32, ptr, ...) @av_log(ptr noundef nonnull %6, i32 noundef 16, ptr noundef nonnull @.str.3, i32 noundef %24) #11
  br label %.sink.split

.sink.split:                                      ; preds = %21, %17, %25
  %.0.ph = phi i32 [ %24, %25 ], [ %19, %17 ], [ 0, %21 ]
  call void @av_frame_free(ptr noundef nonnull %4) #11
  br label %26

26:                                               ; preds = %.sink.split, %15, %9
  %.0 = phi i32 [ -12, %9 ], [ -12, %15 ], [ %.0.ph, %.sink.split ]
  call void @llvm.lifetime.end.p0(i64 8, ptr nonnull %4) #11
  br label %47

27:                                               ; preds = %3
  %28 = getelementptr inbounds nuw i8, ptr %6, i64 80
  %29 = load ptr, ptr %28, align 8, !tbaa !48
  %30 = getelementptr inbounds nuw i8, ptr %29, i64 104
  %31 = load ptr, ptr %30, align 8, !tbaa !86
  %.not34 = icmp eq ptr %31, null
  br i1 %.not34, label %47, label %32

32:                                               ; preds = %27
  %33 = getelementptr inbounds nuw i8, ptr %6, i64 48
  %34 = load ptr, ptr %33, align 8, !tbaa !61
  %.not35 = icmp eq ptr %34, null
  br i1 %.not35, label %47, label %35

35:                                               ; preds = %32
  %36 = tail call ptr @av_buffer_ref(ptr noundef nonnull %0) #11
  %37 = getelementptr inbounds nuw i8, ptr %1, i64 328
  store ptr %36, ptr %37, align 8, !tbaa !71
  %.not36 = icmp eq ptr %36, null
  br i1 %.not36, label %47, label %38

38:                                               ; preds = %35
  %39 = load ptr, ptr %28, align 8, !tbaa !48
  %40 = getelementptr inbounds nuw i8, ptr %39, i64 104
  %41 = load ptr, ptr %40, align 8, !tbaa !86
  %42 = tail call i32 %41(ptr noundef nonnull %6, ptr noundef nonnull %1) #11
  %43 = icmp slt i32 %42, 0
  br i1 %43, label %44, label %45

44:                                               ; preds = %38
  tail call void @av_buffer_unref(ptr noundef nonnull %37) #11
  br label %47

45:                                               ; preds = %38
  %46 = getelementptr inbounds nuw i8, ptr %1, i64 96
  store ptr %1, ptr %46, align 8, !tbaa !87
  br label %47

47:                                               ; preds = %35, %32, %27, %45, %44, %26
  %.1 = phi i32 [ %.0, %26 ], [ %42, %44 ], [ 0, %45 ], [ -38, %27 ], [ -22, %32 ], [ -12, %35 ]
  ret i32 %.1
}